target datalayout = "e-m:e-p270:32:32-p271:32:32-p272:64:64-i64:64-i128:128-f80:128-n8:16:32:64-S128"
target triple = "x86_64-pc-linux-gnu"

%struct.lexbor_str_t = type { ptr, i64 }

; Function Attrs: nounwind uwtable
define internal i64 @lexbor_mraw_data_size(ptr noundef %0) #0 {
  %2 = alloca ptr, align 8
  store ptr %0, ptr %2, align 8
  %3 = load ptr, ptr %2, align 8
  %4 = getelementptr inbounds i8, ptr %3, i64 -8
  %5 = load i64, ptr %4, align 8
  ret i64 %5
}

; Function Attrs: nounwind uwtable
define internal i64 @lexbor_str_size(ptr noundef %0) #0 {
  %2 = alloca ptr, align 8
  store ptr %0, ptr %2, align 8
  %3 = load ptr, ptr %2, align 8
  %4 = getelementptr inbounds %struct.lexbor_str_t, ptr %3, i32 0, i32 0
  %5 = load ptr, ptr %4, align 8
  %6 = call i64 @lexbor_mraw_data_size(ptr noundef %5)
  ret i64 %6
}

; Function Attrs: nounwind uwtable
define hidden ptr @lexbor_str_append_one(ptr noundef %0, ptr noundef %1, i8 noundef zeroext %2) #0 {
  %4 = alloca ptr, align 8
  %5 = alloca ptr, align 8
  %6 = alloca ptr, align 8
  %7 = alloca i8, align 1
  %8 = alloca ptr, align 8
  store ptr %0, ptr %5, align 8
  store ptr %1, ptr %6, align 8
  store i8 %2, ptr %7, align 1
  br label %9

9:                                                ; preds = %3
  %10 = load ptr, ptr %5, align 8
  %11 = getelementptr inbounds %struct.lexbor_str_t, ptr %10, i32 0, i32 1
  %12 = load i64, ptr %11, align 8
  %13 = icmp ugt i64 %12, -3
  br i1 %13, label %14, label %15

14:                                               ; preds = %9
  store ptr null, ptr %4, align 8
  br label %69

15:                                               ; preds = %9
  %16 = load ptr, ptr %5, align 8
  %17 = getelementptr inbounds %struct.lexbor_str_t, ptr %16, i32 0, i32 1
  %18 = load i64, ptr %17, align 8
  %19 = add i64 %18, 2
  %20 = load ptr, ptr %5, align 8
  %21 = call i64 @lexbor_str_size(ptr noundef %20)
  %22 = icmp ugt i64 %19, %21
  br i1 %22, label %23, label %40

23:                                               ; preds = %15
  %24 = load ptr, ptr %6, align 8
  %25 = load ptr, ptr %5, align 8
  %26 = getelementptr inbounds %struct.lexbor_str_t, ptr %25, i32 0, i32 0
  %27 = load ptr, ptr %26, align 8
  %28 = load ptr, ptr %5, align 8
  %29 = getelementptr inbounds %struct.lexbor_str_t, ptr %28, i32 0, i32 1
  %30 = load i64, ptr %29, align 8
  %31 = add i64 %30, 2
  %32 = call ptr @lexbor_mraw_realloc(ptr noundef %24, ptr noundef %27, i64 noundef %31)
  store ptr %32, ptr %8, align 8
  %33 = load ptr, ptr %8, align 8
  %34 = icmp eq ptr %33, null
  br i1 %34, label %35, label %36

35:                                               ; preds = %23
  store ptr null, ptr %4, align 8
  br label %69

36:                                               ; preds = %23
  %37 = load ptr, ptr %8, align 8
  %38 = load ptr, ptr %5, align 8
  %39 = getelementptr inbounds %struct.lexbor_str_t, ptr %38, i32 0, i32 0
  store ptr %37, ptr %39, align 8
  br label %40

40:                                               ; preds = %36, %15
  br label %41

41:                                               ; preds = %40
  %42 = load i8, ptr %7, align 1
  %43 = load ptr, ptr %5, align 8
  %44 = getelementptr inbounds %struct.lexbor_str_t, ptr %43, i32 0, i32 0
  %45 = load ptr, ptr %44, align 8
  %46 = load ptr, ptr %5, align 8
  %47 = getelementptr inbounds %struct.lexbor_str_t, ptr %46, i32 0, i32 1
  %48 = load i64, ptr %47, align 8
  %49 = getelementptr inbounds i8, ptr %45, i64 %48
  store i8 %42, ptr %49, align 1
  %50 = load ptr, ptr %5, align 8
  %51 = getelementptr inbounds %struct.lexbor_str_t, ptr %50, i32 0, i32 1
  %52 = load i64, ptr %51, align 8
  %53 = add i64 %52, 1
  store i64 %53, ptr %51, align 8
  %54 = load ptr, ptr %5, align 8
  %55 = getelementptr inbounds %struct.lexbor_str_t, ptr %54, i32 0, i32 0
  %56 = load ptr, ptr %55, align 8
  %57 = load ptr, ptr %5, align 8
  %58 = getelementptr inbounds %struct.lexbor_str_t, ptr %57, i32 0, i32 1
  %59 = load i64, ptr %58, align 8
  %60 = getelementptr inbounds i8, ptr %56, i64 %59
  store i8 0, ptr %60, align 1
  %61 = load ptr, ptr %5, align 8
  %62 = getelementptr inbounds %struct.lexbor_str_t, ptr %61, i32 0, i32 0
  %63 = load ptr, ptr %62, align 8
  %64 = load ptr, ptr %5, align 8
  %65 = getelementptr inbounds %struct.lexbor_str_t, ptr %64, i32 0, i32 1
  %66 = load i64, ptr %65, align 8
  %67 = sub i64 %66, 1
  %68 = getelementptr inbounds i8, ptr %63, i64 %67
  store ptr %68, ptr %4, align 8
  br label %69

69:                                               ; preds = %41, %35, %14
  %70 = load ptr, ptr %4, align 8
  ret ptr %70
}