; Function Attrs: nounwind uwtable
define hidden ptr @lexbor_str_append_one(ptr nocapture noundef %0, ptr noundef %1, i8 noundef zeroext %2) local_unnamed_addr #0 {
  %4 = getelementptr inbounds i8, ptr %0, i64 8
  %5 = load i64, ptr %4, align 8
  %6 = icmp ugt i64 %5, -3
  br i1 %6, label %27, label %7

7:                                                ; preds = %3
  %8 = add nuw i64 %5, 2
  %.val = load ptr, ptr %0, align 8
  %9 = getelementptr i8, ptr %.val, i64 -8
  %.val.val = load i64, ptr %9, align 8
  %10 = icmp ugt i64 %8, %.val.val
  br i1 %10, label %11, label %15

11:                                               ; preds = %7
  %12 = tail call ptr @lexbor_mraw_realloc(ptr noundef %1, ptr noundef nonnull %.val, i64 noundef %8) #15
  %13 = icmp eq ptr %12, null
  br i1 %13, label %27, label %14

14:                                               ; preds = %11
  store ptr %12, ptr %0, align 8
  %.pre = load i64, ptr %4, align 8
  br label %15

15:                                               ; preds = %7, %14
  %16 = phi i64 [ %5, %7 ], [ %.pre, %14 ]
  %17 = phi ptr [ %.val, %7 ], [ %12, %14 ]
  %18 = getelementptr inbounds i8, ptr %17, i64 %16
  store i8 %2, ptr %18, align 1
  %19 = load i64, ptr %4, align 8
  %20 = add i64 %19, 1
  store i64 %20, ptr %4, align 8
  %21 = load ptr, ptr %0, align 8
  %22 = getelementptr inbounds i8, ptr %21, i64 %20
  store i8 0, ptr %22, align 1
  %23 = load ptr, ptr %0, align 8
  %24 = load i64, ptr %4, align 8
  %25 = getelementptr i8, ptr %23, i64 %24
  %26 = getelementptr i8, ptr %25, i64 -1
  br label %27

27:                                               ; preds = %11, %3, %15
  %.0 = phi ptr [ %26, %15 ], [ null, %3 ], [ null, %11 ]
  ret ptr %.0
}